; Function Attrs: nounwind uwtable
define internal i32 @eventlog_dissect_BackupEventLogW_request(ptr noundef %0, i32 noundef %1, ptr noundef %2, ptr noundef %3, ptr noundef initializes((80, 88)) %4, ptr noundef %5) #0 {
  %7 = getelementptr inbounds nuw i8, ptr %4, i64 80
  store ptr @.str.176, ptr %7, align 8
  %8 = load i32, ptr @hf_eventlog_eventlog_BackupEventLogW_handle, align 4
  %9 = tail call i32 @dissect_ndr_toplevel_pointer(ptr noundef %0, i32 noundef %1, ptr noundef %2, ptr noundef %3, ptr noundef %4, ptr noundef %5, ptr noundef nonnull @eventlog_dissect_element_BackupEventLogW_handle_, i32 noundef 1, ptr noundef nonnull @.str.199, i32 noundef %8) #4
  %10 = tail call i32 @dissect_deferred_pointers(ptr noundef %2, ptr noundef %0, i32 noundef %9, ptr noundef %4, ptr noundef %5) #4
  %11 = load i32, ptr @hf_eventlog_eventlog_BackupEventLogW_backupfilename, align 4
  %12 = tail call i32 @dissect_ndr_toplevel_pointer(ptr noundef %0, i32 noundef %10, ptr noundef %2, ptr noundef %3, ptr noundef %4, ptr noundef %5, ptr noundef nonnull @eventlog_dissect_element_BackupEventLogW_backupfilename_, i32 noundef 2, ptr noundef nonnull @.str.200, i32 noundef %11) #4
  %13 = tail call i32 @dissect_deferred_pointers(ptr noundef %2, ptr noundef %0, i32 noundef %12, ptr noundef %4, ptr noundef %5) #4
  ret i32 %13
}